; Function Attrs: mustprogress uwtable
define void @_ZNK8QuantLib21TriggeredSwapExercise6valuesERKNS_10CurveStateERSt6vectorIdSaIdEE(ptr nocapture noundef nonnull readonly align 8 dereferenceable(248) %this, ptr noundef nonnull align 8 dereferenceable(64) %state, ptr noundef nonnull align 8 dereferenceable(24) %results) unnamed_addr #0 align 2 personality ptr @__gxx_personality_v0 {
entry:
  %rateIndex_ = getelementptr inbounds nuw i8, ptr %this, i64 96
  %currentStep_ = getelementptr inbounds nuw i8, ptr %this, i64 88
  %0 = load i64, ptr %currentStep_, align 8, !tbaa !14
  %1 = load ptr, ptr %rateIndex_, align 8, !tbaa !32
  %2 = getelementptr i64, ptr %1, i64 %0
  %add.ptr.i = getelementptr i8, ptr %2, i64 -8
  %3 = load i64, ptr %add.ptr.i, align 8, !tbaa !34
  %_M_finish.i.i = getelementptr inbounds nuw i8, ptr %results, i64 8
  %4 = load ptr, ptr %_M_finish.i.i, align 8, !tbaa !6
  %5 = load ptr, ptr %results, align 8, !tbaa !10
  %sub.ptr.lhs.cast.i.i = ptrtoint ptr %4 to i64
  %sub.ptr.rhs.cast.i.i = ptrtoint ptr %5 to i64
  %sub.ptr.sub.i.i = sub i64 %sub.ptr.lhs.cast.i.i, %sub.ptr.rhs.cast.i.i
  %sub.ptr.div.i.i = ashr exact i64 %sub.ptr.sub.i.i, 3
  %cmp.i = icmp eq ptr %4, %5
  br i1 %cmp.i, label %if.then.i, label %if.else.i

if.then.i:                                        ; preds = %entry
  %sub.i = sub nuw nsw i64 1, %sub.ptr.div.i.i
  tail call void @_ZNSt6vectorIdSaIdEE17_M_default_appendEm(ptr noundef nonnull align 8 dereferenceable(24) %results, i64 noundef %sub.i)
  br label %_ZNSt6vectorIdSaIdEE6resizeEm.exit

if.else.i:                                        ; preds = %entry
  %cmp4.i = icmp ugt i64 %sub.ptr.div.i.i, 1
  br i1 %cmp4.i, label %if.then5.i, label %_ZNSt6vectorIdSaIdEE6resizeEm.exit

if.then5.i:                                       ; preds = %if.else.i
  %add.ptr.i2 = getelementptr inbounds nuw i8, ptr %5, i64 8
  %tobool.not.i.i = icmp eq ptr %4, %add.ptr.i2
  br i1 %tobool.not.i.i, label %_ZNSt6vectorIdSaIdEE6resizeEm.exit, label %invoke.cont.i.i

invoke.cont.i.i:                                  ; preds = %if.then5.i
  store ptr %add.ptr.i2, ptr %_M_finish.i.i, align 8, !tbaa !6
  br label %_ZNSt6vectorIdSaIdEE6resizeEm.exit

_ZNSt6vectorIdSaIdEE6resizeEm.exit:               ; preds = %if.then.i, %if.else.i, %if.then5.i, %invoke.cont.i.i
  %vtable = load ptr, ptr %state, align 8, !tbaa !3
  %vfn = getelementptr inbounds i8, ptr %vtable, i64 40
  %6 = load ptr, ptr %vfn, align 8
  %call2 = tail call noundef double %6(ptr noundef nonnull align 8 dereferenceable(64) %state, i64 noundef %3)
  %7 = load ptr, ptr %results, align 8, !tbaa !10
  store double %call2, ptr %7, align 8, !tbaa !38
  ret void
}